target datalayout = "e-m:e-p270:32:32-p271:32:32-p272:64:64-i64:64-i128:128-f80:128-n8:16:32:64-S128"
target triple = "x86_64-pc-linux-gnu"

%"class.sat::literal" = type { i32 }
%class.approx_set_tpl = type { i32 }
%class.svector.26 = type { %class.vector.27 }
%class.vector.27 = type { ptr }
%"class.sat::model_converter::entry" = type { i32, i32, %class.svector.26, %class.svector.26, %class.ref_vector_core }
%class.ref_vector_core = type { %class.ptr_vector.50 }
%class.ptr_vector.50 = type { %class.vector.51 }
%class.vector.51 = type { ptr }
%"class.sat::clause" = type { i32, i32, i32, %class.approx_set_tpl, i32, [0 x %"class.sat::literal"] }

; Function Attrs: mustprogress uwtable
define linkonce_odr hidden noundef nonnull align 8 dereferenceable(8) ptr @_ZN6vectorIN3sat7literalELb0EjE9push_backERKS1_(ptr noundef nonnull align 8 dereferenceable(8) %0, ptr noundef nonnull align 4 dereferenceable(4) %1) #4 comdat align 2 {
  %3 = alloca ptr, align 8
  %4 = alloca ptr, align 8
  store ptr %0, ptr %3, align 8, !tbaa !192
  store ptr %1, ptr %4, align 8, !tbaa !195
  %5 = load ptr, ptr %3, align 8
  %6 = getelementptr inbounds nuw %class.vector.27, ptr %5, i32 0, i32 0
  %7 = load ptr, ptr %6, align 8, !tbaa !194
  %8 = icmp eq ptr %7, null
  br i1 %8, label %19, label %9

9:                                                ; preds = %2
  %10 = getelementptr inbounds nuw %class.vector.27, ptr %5, i32 0, i32 0
  %11 = load ptr, ptr %10, align 8, !tbaa !194
  %12 = getelementptr inbounds i32, ptr %11, i64 -1
  %13 = load i32, ptr %12, align 4, !tbaa !20
  %14 = getelementptr inbounds nuw %class.vector.27, ptr %5, i32 0, i32 0
  %15 = load ptr, ptr %14, align 8, !tbaa !194
  %16 = getelementptr inbounds i32, ptr %15, i64 -2
  %17 = load i32, ptr %16, align 4, !tbaa !20
  %18 = icmp eq i32 %13, %17
  br i1 %18, label %19, label %20

19:                                               ; preds = %9, %2
  call void @_ZN6vectorIN3sat7literalELb0EjE13expand_vectorEv(ptr noundef nonnull align 8 dereferenceable(8) %5)
  br label %20

20:                                               ; preds = %19, %9
  %21 = getelementptr inbounds nuw %class.vector.27, ptr %5, i32 0, i32 0
  %22 = load ptr, ptr %21, align 8, !tbaa !194
  %23 = getelementptr inbounds nuw %class.vector.27, ptr %5, i32 0, i32 0
  %24 = load ptr, ptr %23, align 8, !tbaa !194
  %25 = getelementptr inbounds i32, ptr %24, i64 -1
  %26 = load i32, ptr %25, align 4, !tbaa !20
  %27 = zext i32 %26 to i64
  %28 = getelementptr inbounds nuw %"class.sat::literal", ptr %22, i64 %27
  %29 = load ptr, ptr %4, align 8, !tbaa !195
  call void @llvm.memcpy.p0.p0.i64(ptr align 4 %28, ptr align 4 %29, i64 4, i1 false), !tbaa.struct !183
  %30 = getelementptr inbounds nuw %class.vector.27, ptr %5, i32 0, i32 0
  %31 = load ptr, ptr %30, align 8, !tbaa !194
  %32 = getelementptr inbounds i32, ptr %31, i64 -1
  %33 = load i32, ptr %32, align 4, !tbaa !20
  %34 = add i32 %33, 1
  store i32 %34, ptr %32, align 4, !tbaa !20
  ret ptr %5
}

; Function Attrs: mustprogress uwtable
define linkonce_odr hidden void @_ZN6vectorIN3sat7literalELb0EjE6appendEjPKS1_(ptr noundef nonnull align 8 dereferenceable(8) %0, i32 noundef %1, ptr noundef %2) #4 comdat align 2 {
  %4 = alloca ptr, align 8
  %5 = alloca i32, align 4
  %6 = alloca ptr, align 8
  %7 = alloca i32, align 4
  store ptr %0, ptr %4, align 8, !tbaa !192
  store i32 %1, ptr %5, align 4, !tbaa !20
  store ptr %2, ptr %6, align 8, !tbaa !195
  %8 = load ptr, ptr %4, align 8
  call void @llvm.lifetime.start.p0(i64 4, ptr %7) #3
  store i32 0, ptr %7, align 4, !tbaa !20
  br label %9

9:                                                ; preds = %20, %3
  %10 = load i32, ptr %7, align 4, !tbaa !20
  %11 = load i32, ptr %5, align 4, !tbaa !20
  %12 = icmp ult i32 %10, %11
  br i1 %12, label %14, label %13

13:                                               ; preds = %9
  call void @llvm.lifetime.end.p0(i64 4, ptr %7) #3
  br label %23

14:                                               ; preds = %9
  %15 = load ptr, ptr %6, align 8, !tbaa !195
  %16 = load i32, ptr %7, align 4, !tbaa !20
  %17 = zext i32 %16 to i64
  %18 = getelementptr inbounds nuw %"class.sat::literal", ptr %15, i64 %17
  %19 = call noundef nonnull align 8 dereferenceable(8) ptr @_ZN6vectorIN3sat7literalELb0EjE9push_backERKS1_(ptr noundef nonnull align 8 dereferenceable(8) %8, ptr noundef nonnull align 4 dereferenceable(4) %18)
  br label %20

20:                                               ; preds = %14
  %21 = load i32, ptr %7, align 4, !tbaa !20
  %22 = add i32 %21, 1
  store i32 %22, ptr %7, align 4, !tbaa !20
  br label %9, !llvm.loop !223

23:                                               ; preds = %13
  ret void
}

; Function Attrs: mustprogress nounwind uwtable
define linkonce_odr hidden noundef ptr @_ZNK3sat6clause5beginEv(ptr noundef nonnull align 4 dereferenceable(20) %0) #6 comdat align 2 {
  %2 = alloca ptr, align 8
  store ptr %0, ptr %2, align 8, !tbaa !219
  %3 = load ptr, ptr %2, align 8
  %4 = getelementptr inbounds nuw %"class.sat::clause", ptr %3, i32 0, i32 5
  %5 = getelementptr inbounds [0 x %"class.sat::literal"], ptr %4, i64 0, i64 0
  ret ptr %5
}

; Function Attrs: mustprogress nounwind uwtable
define linkonce_odr hidden noundef i32 @_ZNK3sat6clause4sizeEv(ptr noundef nonnull align 4 dereferenceable(20) %0) #6 comdat align 2 {
  %2 = alloca ptr, align 8
  store ptr %0, ptr %2, align 8, !tbaa !219
  %3 = load ptr, ptr %2, align 8
  %4 = getelementptr inbounds nuw %"class.sat::clause", ptr %3, i32 0, i32 1
  %5 = load i32, ptr %4, align 4, !tbaa !224
  ret i32 %5
}

; Function Attrs: mustprogress uwtable
define hidden void @_ZN3sat15model_converter10set_clauseERNS0_5entryERKNS_6clauseE(ptr noundef nonnull align 8 dereferenceable(40) %0, ptr noundef nonnull align 8 dereferenceable(32) %1, ptr noundef nonnull align 4 dereferenceable(20) %2) #4 align 2 {
  %4 = alloca ptr, align 8
  %5 = alloca ptr, align 8
  %6 = alloca ptr, align 8
  store ptr %0, ptr %4, align 8, !tbaa !3
  store ptr %1, ptr %5, align 8, !tbaa !200
  store ptr %2, ptr %6, align 8, !tbaa !219
  %7 = load ptr, ptr %5, align 8, !tbaa !200
  %8 = getelementptr inbounds nuw %"class.sat::model_converter::entry", ptr %7, i32 0, i32 3
  %9 = load ptr, ptr %6, align 8, !tbaa !219
  %10 = call noundef i32 @_ZNK3sat6clause4sizeEv(ptr noundef nonnull align 4 dereferenceable(20) %9)
  %11 = load ptr, ptr %6, align 8, !tbaa !219
  %12 = call noundef ptr @_ZNK3sat6clause5beginEv(ptr noundef nonnull align 4 dereferenceable(20) %11)
  call void @_ZN6vectorIN3sat7literalELb0EjE6appendEjPKS1_(ptr noundef nonnull align 8 dereferenceable(8) %8, i32 noundef %10, ptr noundef %12)
  ret void
}