; Function Attrs: mustprogress uwtable
define hidden void @_ZN3sat15model_converter10set_clauseERNS0_5entryERKNS_6clauseE(ptr noundef nonnull readnone align 8 captures(none) dereferenceable(40) %0, ptr noundef nonnull align 8 dereferenceable(32) %1, ptr noundef nonnull readonly align 4 captures(none) dereferenceable(20) %2) local_unnamed_addr #3 align 2 {
  %4 = getelementptr inbounds nuw i8, ptr %1, i64 16
  %5 = getelementptr inbounds nuw i8, ptr %2, i64 4
  %6 = load i32, ptr %5, align 4, !tbaa !203
  %7 = getelementptr inbounds nuw i8, ptr %2, i64 20
  %.not.i = icmp eq i32 %6, 0
  br i1 %.not.i, label %_ZN6vectorIN3sat7literalELb0EjE6appendEjPKS1_.exit, label %.lr.ph.preheader.i

.lr.ph.preheader.i:                               ; preds = %3
  %wide.trip.count.i = zext i32 %6 to i64
  %.pre.i = load ptr, ptr %4, align 8, !tbaa !11
  br label %.lr.ph.i

.lr.ph.i:                                         ; preds = %_ZN6vectorIN3sat7literalELb0EjE9push_backERKS1_.exit.i, %.lr.ph.preheader.i
  %8 = phi ptr [ %.pre.i, %.lr.ph.preheader.i ], [ %18, %_ZN6vectorIN3sat7literalELb0EjE9push_backERKS1_.exit.i ]
  %indvars.iv.i = phi i64 [ 0, %.lr.ph.preheader.i ], [ %indvars.iv.next.i, %_ZN6vectorIN3sat7literalELb0EjE9push_backERKS1_.exit.i ]
  %9 = getelementptr inbounds nuw %"class.sat::literal", ptr %7, i64 %indvars.iv.i
  %10 = icmp eq ptr %8, null
  br i1 %10, label %17, label %11

11:                                               ; preds = %.lr.ph.i
  %12 = getelementptr inbounds i8, ptr %8, i64 -4
  %13 = load i32, ptr %12, align 4, !tbaa !9
  %14 = getelementptr inbounds i8, ptr %8, i64 -8
  %15 = load i32, ptr %14, align 4, !tbaa !9
  %16 = icmp eq i32 %13, %15
  br i1 %16, label %17, label %_ZN6vectorIN3sat7literalELb0EjE9push_backERKS1_.exit.i

17:                                               ; preds = %11, %.lr.ph.i
  tail call void @_ZN6vectorIN3sat7literalELb0EjE13expand_vectorEv(ptr noundef nonnull align 8 dereferenceable(8) %4)
  %.pre.i.i = load ptr, ptr %4, align 8, !tbaa !11
  %.phi.trans.insert.i.i = getelementptr inbounds i8, ptr %.pre.i.i, i64 -4
  %.pre2.i.i = load i32, ptr %.phi.trans.insert.i.i, align 4, !tbaa !9
  br label %_ZN6vectorIN3sat7literalELb0EjE9push_backERKS1_.exit.i

_ZN6vectorIN3sat7literalELb0EjE9push_backERKS1_.exit.i: ; preds = %17, %11
  %18 = phi ptr [ %.pre.i.i, %17 ], [ %8, %11 ]
  %19 = phi i32 [ %.pre2.i.i, %17 ], [ %13, %11 ]
  %20 = getelementptr inbounds i8, ptr %18, i64 -4
  %21 = zext i32 %19 to i64
  %22 = getelementptr inbounds nuw %"class.sat::literal", ptr %18, i64 %21
  %23 = load i32, ptr %9, align 4, !tbaa !9
  store i32 %23, ptr %22, align 4, !tbaa !9
  %24 = add i32 %19, 1
  store i32 %24, ptr %20, align 4, !tbaa !9
  %indvars.iv.next.i = add nuw nsw i64 %indvars.iv.i, 1
  %exitcond.not.i = icmp eq i64 %indvars.iv.next.i, %wide.trip.count.i
  br i1 %exitcond.not.i, label %_ZN6vectorIN3sat7literalELb0EjE6appendEjPKS1_.exit, label %.lr.ph.i, !llvm.loop !209

_ZN6vectorIN3sat7literalELb0EjE6appendEjPKS1_.exit: ; preds = %_ZN6vectorIN3sat7literalELb0EjE9push_backERKS1_.exit.i, %3
  ret void
}